; Function Attrs: mustprogress nofree norecurse nosync nounwind sspstrong willreturn memory(argmem: write) uwtable
define dso_local range(i32 -6, 1) i32 @onigenc_unicode_ctype_code_range(i32 noundef %0, ptr noundef writeonly captures(none) %1) local_unnamed_addr #2 {
  %3 = icmp sgt i32 %0, 644
  br i1 %3, label %8, label %4

4:                                                ; preds = %2
  %5 = sext i32 %0 to i64
  %6 = getelementptr [645 x ptr], ptr @CodeRanges, i64 0, i64 %5
  %7 = load ptr, ptr %6, align 8, !tbaa !11
  store ptr %7, ptr %1, align 8, !tbaa !11
  br label %8

8:                                                ; preds = %2, %4
  %.0 = phi i32 [ 0, %4 ], [ -6, %2 ]
  ret i32 %.0
}